target datalayout = "e-m:e-p270:32:32-p271:32:32-p272:64:64-i64:64-i128:128-f80:128-n8:16:32:64-S128"
target triple = "x86_64-pc-linux-gnu"

%struct.BrinOpaque = type { i32, ptr, ptr }
%struct.IndexScanDescData = type { ptr, ptr, ptr, i32, i32, ptr, ptr, i8, i8, i8, i8, i8, ptr, ptr, ptr, ptr, ptr, %struct.ItemPointerData, i8, ptr, i8, ptr, ptr, i8, ptr }
%struct.ItemPointerData = type { %struct.BlockIdData, i16 }
%struct.BlockIdData = type { i16, i16 }

; Function Attrs: nounwind uwtable
define dso_local ptr @brinbeginscan(ptr noundef %0, i32 noundef %1, i32 noundef %2) #0 {
  %4 = alloca ptr, align 8
  %5 = alloca i32, align 4
  %6 = alloca i32, align 4
  %7 = alloca ptr, align 8
  %8 = alloca ptr, align 8
  store ptr %0, ptr %4, align 8
  store i32 %1, ptr %5, align 4
  store i32 %2, ptr %6, align 4
  call void @llvm.lifetime.start.p0(i64 8, ptr %7) #9
  call void @llvm.lifetime.start.p0(i64 8, ptr %8) #9
  %9 = load ptr, ptr %4, align 8
  %10 = load i32, ptr %5, align 4
  %11 = load i32, ptr %6, align 4
  %12 = call ptr @RelationGetIndexScan(ptr noundef %9, i32 noundef %10, i32 noundef %11)
  store ptr %12, ptr %7, align 8
  %13 = call ptr @palloc(i64 noundef 24)
  store ptr %13, ptr %8, align 8
  %14 = load ptr, ptr %4, align 8
  %15 = load ptr, ptr %8, align 8
  %16 = getelementptr inbounds nuw %struct.BrinOpaque, ptr %15, i32 0, i32 0
  %17 = call ptr @brinRevmapInitialize(ptr noundef %14, ptr noundef %16)
  %18 = load ptr, ptr %8, align 8
  %19 = getelementptr inbounds nuw %struct.BrinOpaque, ptr %18, i32 0, i32 1
  store ptr %17, ptr %19, align 8
  %20 = load ptr, ptr %4, align 8
  %21 = call ptr @brin_build_desc(ptr noundef %20)
  %22 = load ptr, ptr %8, align 8
  %23 = getelementptr inbounds nuw %struct.BrinOpaque, ptr %22, i32 0, i32 2
  store ptr %21, ptr %23, align 8
  %24 = load ptr, ptr %8, align 8
  %25 = load ptr, ptr %7, align 8
  %26 = getelementptr inbounds nuw %struct.IndexScanDescData, ptr %25, i32 0, i32 12
  store ptr %24, ptr %26, align 8
  %27 = load ptr, ptr %7, align 8
  call void @llvm.lifetime.end.p0(i64 8, ptr %8) #9
  call void @llvm.lifetime.end.p0(i64 8, ptr %7) #9
  ret ptr %27
}