; Function Attrs: nounwind uwtable
define dso_local ptr @brinbeginscan(ptr noundef %0, i32 noundef %1, i32 noundef %2) #0 {
  %4 = tail call ptr @RelationGetIndexScan(ptr noundef %0, i32 noundef %1, i32 noundef %2) #10
  %5 = tail call ptr @palloc(i64 noundef 24) #10
  %6 = tail call ptr @brinRevmapInitialize(ptr noundef %0, ptr noundef %5) #10
  %7 = getelementptr inbounds nuw i8, ptr %5, i64 8
  store ptr %6, ptr %7, align 8
  %8 = tail call ptr @brin_build_desc(ptr noundef %0)
  %9 = getelementptr inbounds nuw i8, ptr %5, i64 16
  store ptr %8, ptr %9, align 8
  %10 = getelementptr inbounds nuw i8, ptr %4, i64 56
  store ptr %5, ptr %10, align 8
  ret ptr %4
}